; Function Attrs: null_pointer_is_valid sspstrong uwtable
define internal noundef zeroext i1 @lbttcp_tag_update_cb(ptr noundef readonly captures(none) %0, ptr noundef writeonly captures(none) %1) #0 {
  %3 = load ptr, ptr %0, align 8
  %4 = icmp eq ptr %3, null
  br i1 %4, label %.sink.split, label %5

5:                                                ; preds = %2
  %6 = tail call ptr @g_strchug(ptr noundef nonnull %3)
  %7 = tail call ptr @g_strchomp(ptr noundef %6)
  %8 = load ptr, ptr %0, align 8
  %9 = load i8, ptr %8, align 1
  %10 = icmp eq i8 %9, 0
  br i1 %10, label %.sink.split, label %12

.sink.split:                                      ; preds = %5, %2
  %11 = tail call noalias ptr @g_strdup(ptr noundef nonnull @.str.47)
  store ptr %11, ptr %1, align 8
  br label %12

12:                                               ; preds = %.sink.split, %5
  %.0 = phi i1 [ true, %5 ], [ false, %.sink.split ]
  ret i1 %.0
}